; Function Attrs: nounwind uwtable
define range(i32 0, 65536) i32 @avio_rl16(ptr noundef %0) local_unnamed_addr #3 {
  %2 = getelementptr inbounds nuw i8, ptr %0, i64 24
  %3 = load ptr, ptr %2, align 8, !tbaa !16
  %4 = getelementptr inbounds nuw i8, ptr %0, i64 32
  %5 = load ptr, ptr %4, align 8, !tbaa !19
  %.not.i = icmp ult ptr %3, %5
  br i1 %.not.i, label %7, label %6

6:                                                ; preds = %1
  tail call fastcc void @fill_buffer(ptr noundef nonnull %0)
  %.pre.i = load ptr, ptr %2, align 8, !tbaa !16
  %.pre7.i = load ptr, ptr %4, align 8, !tbaa !19
  br label %7

7:                                                ; preds = %6, %1
  %8 = phi ptr [ %.pre7.i, %6 ], [ %5, %1 ]
  %9 = phi ptr [ %.pre.i, %6 ], [ %3, %1 ]
  %10 = icmp ult ptr %9, %8
  br i1 %10, label %11, label %avio_r8.exit

11:                                               ; preds = %7
  %12 = getelementptr inbounds nuw i8, ptr %9, i64 1
  store ptr %12, ptr %2, align 8, !tbaa !16
  %13 = load i8, ptr %9, align 1, !tbaa !33
  %14 = zext i8 %13 to i32
  br label %avio_r8.exit

avio_r8.exit:                                     ; preds = %7, %11
  %15 = phi ptr [ %12, %11 ], [ %9, %7 ]
  %.0.i = phi i32 [ %14, %11 ], [ 0, %7 ]
  %.not.i3 = icmp ult ptr %15, %8
  br i1 %.not.i3, label %17, label %16

16:                                               ; preds = %avio_r8.exit
  tail call fastcc void @fill_buffer(ptr noundef nonnull %0)
  %.pre.i4 = load ptr, ptr %2, align 8, !tbaa !16
  %.pre7.i5 = load ptr, ptr %4, align 8, !tbaa !19
  br label %17

17:                                               ; preds = %16, %avio_r8.exit
  %18 = phi ptr [ %.pre7.i5, %16 ], [ %8, %avio_r8.exit ]
  %19 = phi ptr [ %.pre.i4, %16 ], [ %15, %avio_r8.exit ]
  %20 = icmp ult ptr %19, %18
  br i1 %20, label %21, label %avio_r8.exit7

21:                                               ; preds = %17
  %22 = getelementptr inbounds nuw i8, ptr %19, i64 1
  store ptr %22, ptr %2, align 8, !tbaa !16
  %23 = load i8, ptr %19, align 1, !tbaa !33
  %24 = zext i8 %23 to i32
  %25 = shl nuw nsw i32 %24, 8
  br label %avio_r8.exit7

avio_r8.exit7:                                    ; preds = %17, %21
  %.0.i6 = phi i32 [ %25, %21 ], [ 0, %17 ]
  %26 = or disjoint i32 %.0.i6, %.0.i
  ret i32 %26
}